; ModuleID = 'source-C-CXX/56/2095.c'
source_filename = "source-C-CXX/56/2095.c"
target datalayout = "e-m:e-p270:32:32-p271:32:32-p272:64:64-i64:64-f80:128-n8:16:32:64-S128"
target triple = "x86_64-pc-linux-gnu"

@.str = private unnamed_addr constant [3 x i8] c"%d\00", align 1
@.str.1 = private unnamed_addr constant [3 x i8] c"%s\00", align 1

; Function Attrs: nofree nounwind sspstrong uwtable
define dso_local i32 @main(i32 %0, i8** nocapture readnone %1) local_unnamed_addr #0 {
  %3 = alloca i32, align 4
  %4 = alloca [100 x i8], align 16
  %5 = bitcast i32* %3 to i8*
  call void @llvm.lifetime.start.p0i8(i64 4, i8* nonnull %5) #5
  %6 = getelementptr inbounds [100 x i8], [100 x i8]* %4, i64 0, i64 0
  call void @llvm.lifetime.start.p0i8(i64 100, i8* nonnull %6) #5
  %7 = call i32 (i8*, ...) @__isoc99_scanf(i8* getelementptr inbounds ([3 x i8], [3 x i8]* @.str, i64 0, i64 0), i32* nonnull %3)
  %8 = load i32, i32* %3, align 4, !tbaa !5
  %9 = icmp sgt i32 %8, 0
  br i1 %9, label %10, label %92

10:                                               ; preds = %2, %88
  %11 = phi i32 [ %89, %88 ], [ 0, %2 ]
  %12 = call i32 (i8*, ...) @__isoc99_scanf(i8* getelementptr inbounds ([3 x i8], [3 x i8]* @.str.1, i64 0, i64 0), i8* nonnull %6)
  %13 = call i64 @strlen(i8* noundef nonnull %6) #6
  %14 = trunc i64 %13 to i32
  %15 = shl i64 %13, 32
  %16 = add i64 %15, -4294967296
  %17 = ashr exact i64 %16, 32
  %18 = getelementptr inbounds [100 x i8], [100 x i8]* %4, i64 0, i64 %17
  %19 = load i8, i8* %18, align 1, !tbaa !9
  switch i8 %19, label %86 [
    i8 114, label %20
    i8 121, label %40
    i8 103, label %60
  ]

20:                                               ; preds = %10
  %21 = add i32 %14, -2
  %22 = sext i32 %21 to i64
  %23 = getelementptr inbounds [100 x i8], [100 x i8]* %4, i64 0, i64 %22
  %24 = load i8, i8* %23, align 1, !tbaa !9
  %25 = icmp eq i8 %24, 101
  br i1 %25, label %26, label %86

26:                                               ; preds = %20
  %27 = icmp sgt i32 %14, 2
  br i1 %27, label %28, label %38

28:                                               ; preds = %26
  %29 = zext i32 %21 to i64
  br label %30

30:                                               ; preds = %28, %30
  %31 = phi i64 [ 0, %28 ], [ %36, %30 ]
  %32 = getelementptr inbounds [100 x i8], [100 x i8]* %4, i64 0, i64 %31
  %33 = load i8, i8* %32, align 1, !tbaa !9
  %34 = sext i8 %33 to i32
  %35 = call i32 @putchar(i32 %34)
  %36 = add nuw nsw i64 %31, 1
  %37 = icmp eq i64 %36, %29
  br i1 %37, label %38, label %30, !llvm.loop !10

38:                                               ; preds = %30, %26
  %39 = call i32 @putchar(i32 10)
  br label %88

40:                                               ; preds = %10
  %41 = add i32 %14, -2
  %42 = sext i32 %41 to i64
  %43 = getelementptr inbounds [100 x i8], [100 x i8]* %4, i64 0, i64 %42
  %44 = load i8, i8* %43, align 1, !tbaa !9
  %45 = icmp eq i8 %44, 108
  br i1 %45, label %46, label %86

46:                                               ; preds = %40
  %47 = icmp sgt i32 %14, 2
  br i1 %47, label %48, label %58

48:                                               ; preds = %46
  %49 = zext i32 %41 to i64
  br label %50

50:                                               ; preds = %48, %50
  %51 = phi i64 [ 0, %48 ], [ %56, %50 ]
  %52 = getelementptr inbounds [100 x i8], [100 x i8]* %4, i64 0, i64 %51
  %53 = load i8, i8* %52, align 1, !tbaa !9
  %54 = sext i8 %53 to i32
  %55 = call i32 @putchar(i32 %54)
  %56 = add nuw nsw i64 %51, 1
  %57 = icmp eq i64 %56, %49
  br i1 %57, label %58, label %50, !llvm.loop !12

58:                                               ; preds = %50, %46
  %59 = call i32 @putchar(i32 10)
  br label %88

60:                                               ; preds = %10
  %61 = add i64 %15, -8589934592
  %62 = ashr exact i64 %61, 32
  %63 = getelementptr inbounds [100 x i8], [100 x i8]* %4, i64 0, i64 %62
  %64 = load i8, i8* %63, align 1, !tbaa !9
  %65 = icmp eq i8 %64, 110
  br i1 %65, label %66, label %86

66:                                               ; preds = %60
  %67 = add i32 %14, -3
  %68 = sext i32 %67 to i64
  %69 = getelementptr inbounds [100 x i8], [100 x i8]* %4, i64 0, i64 %68
  %70 = load i8, i8* %69, align 1, !tbaa !9
  %71 = icmp eq i8 %70, 105
  br i1 %71, label %72, label %86

72:                                               ; preds = %66
  %73 = icmp sgt i32 %14, 3
  br i1 %73, label %74, label %84

74:                                               ; preds = %72
  %75 = zext i32 %67 to i64
  br label %76

76:                                               ; preds = %74, %76
  %77 = phi i64 [ 0, %74 ], [ %82, %76 ]
  %78 = getelementptr inbounds [100 x i8], [100 x i8]* %4, i64 0, i64 %77
  %79 = load i8, i8* %78, align 1, !tbaa !9
  %80 = sext i8 %79 to i32
  %81 = call i32 @putchar(i32 %80)
  %82 = add nuw nsw i64 %77, 1
  %83 = icmp eq i64 %82, %75
  br i1 %83, label %84, label %76, !llvm.loop !13

84:                                               ; preds = %76, %72
  %85 = call i32 @putchar(i32 10)
  br label %88

86:                                               ; preds = %10, %20, %40, %66, %60
  %87 = call i32 @puts(i8* nonnull %6)
  br label %88

88:                                               ; preds = %38, %84, %86, %58
  %89 = add nuw nsw i32 %11, 1
  %90 = load i32, i32* %3, align 4, !tbaa !5
  %91 = icmp slt i32 %89, %90
  br i1 %91, label %10, label %92, !llvm.loop !14

92:                                               ; preds = %88, %2
  call void @llvm.lifetime.end.p0i8(i64 100, i8* nonnull %6) #5
  call void @llvm.lifetime.end.p0i8(i64 4, i8* nonnull %5) #5
  ret i32 0
}

; Function Attrs: argmemonly mustprogress nofree nosync nounwind willreturn
declare void @llvm.lifetime.start.p0i8(i64 immarg, i8* nocapture) #1

; Function Attrs: nofree nounwind
declare noundef i32 @__isoc99_scanf(i8* nocapture noundef readonly, ...) local_unnamed_addr #2

; Function Attrs: argmemonly mustprogress nofree nounwind readonly willreturn
declare i64 @strlen(i8* nocapture) local_unnamed_addr #3

; Function Attrs: argmemonly mustprogress nofree nosync nounwind willreturn
declare void @llvm.lifetime.end.p0i8(i64 immarg, i8* nocapture) #1

; Function Attrs: nofree nounwind
declare noundef i32 @puts(i8* nocapture noundef readonly) local_unnamed_addr #4

; Function Attrs: nofree nounwind
declare noundef i32 @putchar(i32 noundef) local_unnamed_addr #4


!llvm.module.flags = !{!0, !1, !2, !3}
!llvm.ident = !{!4}

!0 = !{i32 1, !"wchar_size", i32 4}
!1 = !{i32 7, !"PIC Level", i32 2}
!2 = !{i32 7, !"PIE Level", i32 2}
!3 = !{i32 7, !"uwtable", i32 1}
!4 = !{!"clang version 13.0.0"}
!5 = !{!6, !6, i64 0}
!6 = !{!"int", !7, i64 0}
!7 = !{!"omnipotent char", !8, i64 0}
!8 = !{!"Simple C/C++ TBAA"}
!9 = !{!7, !7, i64 0}
!10 = distinct !{!10, !11}
!11 = !{!"llvm.loop.mustprogress"}
!12 = distinct !{!12, !11}
!13 = distinct !{!13, !11}
!14 = distinct !{!14, !11}
